target datalayout = "e-m:e-p270:32:32-p271:32:32-p272:64:64-i64:64-i128:128-f80:128-n8:16:32:64-S128"
target triple = "x86_64-pc-linux-gnu"

%struct.pmix_hash_type_methods_t = type { ptr, ptr }
%struct.pmix_hash_table_t = type { %struct.pmix_object_t, ptr, ptr, i64, i64, i64, i32, i32, i32, i32, ptr }
%struct.pmix_object_t = type { %union.pthread_mutex_t, ptr, i32, %struct.pmix_tma }
%union.pthread_mutex_t = type { %struct.__pthread_mutex_s }
%struct.__pthread_mutex_s = type { i32, i32, i32, i32, i32, i16, i16, %struct.__pthread_internal_list }
%struct.__pthread_internal_list = type { ptr, ptr }
%struct.pmix_tma = type { ptr, ptr, ptr, ptr, ptr, ptr, ptr, ptr }
%struct.pmix_hash_element_t = type { i32, %union.anon, ptr, ptr }
%union.anon = type { %struct.anon }
%struct.anon = type { ptr, i64 }

@pmix_hash_type_methods_uint32 = internal constant %struct.pmix_hash_type_methods_t { ptr null, ptr @pmix_hash_hash_elt_uint32 }, align 8

; Function Attrs: inlinehint nounwind uwtable
define internal ptr @pmix_obj_get_tma(ptr noundef %0) #2 {
  %2 = alloca ptr, align 8
  %3 = alloca ptr, align 8
  store ptr %0, ptr %3, align 8, !tbaa !30
  %4 = load ptr, ptr %3, align 8, !tbaa !30
  %5 = getelementptr inbounds nuw %struct.pmix_object_t, ptr %4, i32 0, i32 3
  %6 = getelementptr inbounds nuw %struct.pmix_tma, ptr %5, i32 0, i32 0
  %7 = load ptr, ptr %6, align 8, !tbaa !32
  %8 = icmp ne ptr %7, null
  br i1 %8, label %9, label %12

9:                                                ; preds = %1
  %10 = load ptr, ptr %3, align 8, !tbaa !30
  %11 = getelementptr inbounds nuw %struct.pmix_object_t, ptr %10, i32 0, i32 3
  store ptr %11, ptr %2, align 8
  br label %13

12:                                               ; preds = %1
  store ptr null, ptr %2, align 8
  br label %13

13:                                               ; preds = %12, %9
  %14 = load ptr, ptr %2, align 8
  ret ptr %14
}

; Function Attrs: nounwind uwtable
define i32 @pmix_hash_table_set_value_uint32(ptr noundef %0, i32 noundef %1, ptr noundef %2) #0 {
  %4 = alloca i32, align 4
  %5 = alloca ptr, align 8
  %6 = alloca i32, align 4
  %7 = alloca ptr, align 8
  %8 = alloca i32, align 4
  %9 = alloca i64, align 8
  %10 = alloca i64, align 8
  %11 = alloca ptr, align 8
  %12 = alloca ptr, align 8
  %13 = alloca i32, align 4
  store ptr %0, ptr %5, align 8, !tbaa !3
  store i32 %1, ptr %6, align 4, !tbaa !29
  store ptr %2, ptr %7, align 8, !tbaa !42
  call void @llvm.lifetime.start.p0(i64 4, ptr %8) #9
  call void @llvm.lifetime.start.p0(i64 8, ptr %9) #9
  call void @llvm.lifetime.start.p0(i64 8, ptr %10) #9
  %14 = load ptr, ptr %5, align 8, !tbaa !3
  %15 = getelementptr inbounds nuw %struct.pmix_hash_table_t, ptr %14, i32 0, i32 3
  %16 = load i64, ptr %15, align 8, !tbaa !20
  store i64 %16, ptr %10, align 8, !tbaa !28
  call void @llvm.lifetime.start.p0(i64 8, ptr %11) #9
  call void @llvm.lifetime.start.p0(i64 8, ptr %12) #9
  %17 = load ptr, ptr %5, align 8, !tbaa !3
  %18 = getelementptr inbounds nuw %struct.pmix_hash_table_t, ptr %17, i32 0, i32 0
  %19 = call ptr @pmix_obj_get_tma(ptr noundef %18)
  store ptr %19, ptr %12, align 8, !tbaa !26
  %20 = load ptr, ptr %5, align 8, !tbaa !3
  %21 = getelementptr inbounds nuw %struct.pmix_hash_table_t, ptr %20, i32 0, i32 10
  store ptr @pmix_hash_type_methods_uint32, ptr %21, align 8, !tbaa !25
  %22 = load i32, ptr %6, align 4, !tbaa !29
  %23 = zext i32 %22 to i64
  %24 = load i64, ptr %10, align 8, !tbaa !28
  %25 = urem i64 %23, %24
  store i64 %25, ptr %9, align 8, !tbaa !28
  br label %26

26:                                               ; preds = %85, %3
  %27 = load i64, ptr %9, align 8, !tbaa !28
  %28 = load i64, ptr %10, align 8, !tbaa !28
  %29 = icmp eq i64 %27, %28
  br i1 %29, label %30, label %31

30:                                               ; preds = %26
  store i64 0, ptr %9, align 8, !tbaa !28
  br label %31

31:                                               ; preds = %30, %26
  %32 = load ptr, ptr %5, align 8, !tbaa !3
  %33 = getelementptr inbounds nuw %struct.pmix_hash_table_t, ptr %32, i32 0, i32 2
  %34 = load ptr, ptr %33, align 8, !tbaa !8
  %35 = load i64, ptr %9, align 8, !tbaa !28
  %36 = getelementptr inbounds nuw %struct.pmix_hash_element_t, ptr %34, i64 %35
  store ptr %36, ptr %11, align 8, !tbaa !34
  %37 = load ptr, ptr %11, align 8, !tbaa !34
  %38 = getelementptr inbounds nuw %struct.pmix_hash_element_t, ptr %37, i32 0, i32 0
  %39 = load i32, ptr %38, align 8, !tbaa !35
  %40 = icmp ne i32 %39, 0
  br i1 %40, label %72, label %41

41:                                               ; preds = %31
  %42 = load i32, ptr %6, align 4, !tbaa !29
  %43 = load ptr, ptr %11, align 8, !tbaa !34
  %44 = getelementptr inbounds nuw %struct.pmix_hash_element_t, ptr %43, i32 0, i32 1
  store i32 %42, ptr %44, align 8, !tbaa !43
  %45 = load ptr, ptr %7, align 8, !tbaa !42
  %46 = load ptr, ptr %11, align 8, !tbaa !34
  %47 = getelementptr inbounds nuw %struct.pmix_hash_element_t, ptr %46, i32 0, i32 3
  store ptr %45, ptr %47, align 8, !tbaa !39
  %48 = load ptr, ptr %11, align 8, !tbaa !34
  %49 = getelementptr inbounds nuw %struct.pmix_hash_element_t, ptr %48, i32 0, i32 0
  store i32 1, ptr %49, align 8, !tbaa !35
  %50 = load ptr, ptr %12, align 8, !tbaa !26
  %51 = load ptr, ptr %11, align 8, !tbaa !34
  %52 = getelementptr inbounds nuw %struct.pmix_hash_element_t, ptr %51, i32 0, i32 2
  store ptr %50, ptr %52, align 8, !tbaa !44
  %53 = load ptr, ptr %5, align 8, !tbaa !3
  %54 = getelementptr inbounds nuw %struct.pmix_hash_table_t, ptr %53, i32 0, i32 4
  %55 = load i64, ptr %54, align 8, !tbaa !19
  %56 = add i64 %55, 1
  store i64 %56, ptr %54, align 8, !tbaa !19
  %57 = load ptr, ptr %5, align 8, !tbaa !3
  %58 = getelementptr inbounds nuw %struct.pmix_hash_table_t, ptr %57, i32 0, i32 4
  %59 = load i64, ptr %58, align 8, !tbaa !19
  %60 = load ptr, ptr %5, align 8, !tbaa !3
  %61 = getelementptr inbounds nuw %struct.pmix_hash_table_t, ptr %60, i32 0, i32 5
  %62 = load i64, ptr %61, align 8, !tbaa !18
  %63 = icmp uge i64 %59, %62
  br i1 %63, label %64, label %71

64:                                               ; preds = %41
  %65 = load ptr, ptr %5, align 8, !tbaa !3
  %66 = call i32 @pmix_hash_grow(ptr noundef %65)
  store i32 %66, ptr %8, align 4, !tbaa !29
  %67 = icmp ne i32 0, %66
  br i1 %67, label %68, label %70

68:                                               ; preds = %64
  %69 = load i32, ptr %8, align 4, !tbaa !29
  store i32 %69, ptr %4, align 4
  store i32 1, ptr %13, align 4
  br label %88

70:                                               ; preds = %64
  br label %71

71:                                               ; preds = %70, %41
  store i32 0, ptr %4, align 4
  store i32 1, ptr %13, align 4
  br label %88

72:                                               ; preds = %31
  %73 = load ptr, ptr %11, align 8, !tbaa !34
  %74 = getelementptr inbounds nuw %struct.pmix_hash_element_t, ptr %73, i32 0, i32 1
  %75 = load i32, ptr %74, align 8, !tbaa !43
  %76 = load i32, ptr %6, align 4, !tbaa !29
  %77 = icmp eq i32 %75, %76
  br i1 %77, label %78, label %82

78:                                               ; preds = %72
  %79 = load ptr, ptr %7, align 8, !tbaa !42
  %80 = load ptr, ptr %11, align 8, !tbaa !34
  %81 = getelementptr inbounds nuw %struct.pmix_hash_element_t, ptr %80, i32 0, i32 3
  store ptr %79, ptr %81, align 8, !tbaa !39
  store i32 0, ptr %4, align 4
  store i32 1, ptr %13, align 4
  br label %88

82:                                               ; preds = %72
  br label %83

83:                                               ; preds = %82
  br label %84

84:                                               ; preds = %83
  br label %85

85:                                               ; preds = %84
  %86 = load i64, ptr %9, align 8, !tbaa !28
  %87 = add i64 %86, 1
  store i64 %87, ptr %9, align 8, !tbaa !28
  br label %26

88:                                               ; preds = %78, %71, %68
  call void @llvm.lifetime.end.p0(i64 8, ptr %12) #9
  call void @llvm.lifetime.end.p0(i64 8, ptr %11) #9
  call void @llvm.lifetime.end.p0(i64 8, ptr %10) #9
  call void @llvm.lifetime.end.p0(i64 8, ptr %9) #9
  call void @llvm.lifetime.end.p0(i64 4, ptr %8) #9
  %89 = load i32, ptr %4, align 4
  ret i32 %89
}