; Function Attrs: nounwind uwtable
define range(i32 -29, 1) i32 @pmix_hash_table_set_value_uint32(ptr noundef %0, i32 noundef %1, ptr noundef %2) local_unnamed_addr #1 {
  %4 = getelementptr inbounds nuw i8, ptr %0, i64 136
  %5 = load i64, ptr %4, align 8, !tbaa !11
  %6 = getelementptr inbounds nuw i8, ptr %0, i64 56
  %7 = load ptr, ptr %6, align 8, !tbaa !3
  %.not.i = icmp eq ptr %7, null
  %..i = select i1 %.not.i, ptr null, ptr %6
  %8 = getelementptr inbounds nuw i8, ptr %0, i64 176
  store ptr @pmix_hash_type_methods_uint32, ptr %8, align 8, !tbaa !21
  %9 = zext i32 %1 to i64
  %10 = urem i64 %9, %5
  %11 = getelementptr inbounds nuw i8, ptr %0, i64 128
  %12 = load ptr, ptr %11, align 8, !tbaa !17
  %13 = getelementptr inbounds nuw %struct.pmix_hash_element_t, ptr %12, i64 %10
  %14 = load i32, ptr %13, align 8, !tbaa !18
  %.not32 = icmp eq i32 %14, 0
  br i1 %.not32, label %._crit_edge, label %.lr.ph

15:                                               ; preds = %.lr.ph
  %16 = add i64 %spec.store.select33, 1
  %17 = icmp eq i64 %16, %5
  %spec.store.select = select i1 %17, i64 0, i64 %16
  %18 = getelementptr inbounds nuw %struct.pmix_hash_element_t, ptr %12, i64 %spec.store.select
  %19 = load i32, ptr %18, align 8, !tbaa !18
  %.not = icmp eq i32 %19, 0
  br i1 %.not, label %._crit_edge, label %.lr.ph

._crit_edge:                                      ; preds = %15, %3
  %.lcssa = phi ptr [ %13, %3 ], [ %18, %15 ]
  %20 = getelementptr inbounds nuw i8, ptr %.lcssa, i64 8
  store i32 %1, ptr %20, align 8, !tbaa !36
  %21 = getelementptr inbounds nuw i8, ptr %.lcssa, i64 32
  store ptr %2, ptr %21, align 8, !tbaa !24
  store i32 1, ptr %.lcssa, align 8, !tbaa !18
  %22 = getelementptr inbounds nuw i8, ptr %.lcssa, i64 24
  store ptr %..i, ptr %22, align 8, !tbaa !38
  %23 = getelementptr inbounds nuw i8, ptr %0, i64 144
  %24 = load i64, ptr %23, align 8, !tbaa !27
  %25 = add i64 %24, 1
  store i64 %25, ptr %23, align 8, !tbaa !27
  %26 = getelementptr inbounds nuw i8, ptr %0, i64 152
  %27 = load i64, ptr %26, align 8, !tbaa !35
  %.not29 = icmp ult i64 %25, %27
  br i1 %.not29, label %30, label %28

28:                                               ; preds = %._crit_edge
  %29 = tail call fastcc i32 @pmix_hash_grow(ptr noundef nonnull %0)
  %.not30 = icmp eq i32 %29, 0
  br i1 %.not30, label %30, label %37

30:                                               ; preds = %28, %._crit_edge
  br label %37

.lr.ph:                                           ; preds = %3, %15
  %31 = phi ptr [ %18, %15 ], [ %13, %3 ]
  %spec.store.select33 = phi i64 [ %spec.store.select, %15 ], [ %10, %3 ]
  %32 = getelementptr inbounds nuw i8, ptr %31, i64 8
  %33 = load i32, ptr %32, align 8, !tbaa !36
  %34 = icmp eq i32 %33, %1
  br i1 %34, label %35, label %15

35:                                               ; preds = %.lr.ph
  %36 = getelementptr inbounds nuw i8, ptr %31, i64 32
  store ptr %2, ptr %36, align 8, !tbaa !24
  br label %37

37:                                               ; preds = %28, %35, %30
  %.0 = phi i32 [ 0, %35 ], [ 0, %30 ], [ %29, %28 ]
  ret i32 %.0
}